target datalayout = "e-m:e-p270:32:32-p271:32:32-p272:64:64-i64:64-i128:128-f80:128-n8:16:32:64-S128"
target triple = "x86_64-pc-linux-gnu"

%struct.mpd_t = type { i8, i64, i64, i64, i64, ptr }

@mpd_pow10 = external hidden constant [0 x i64], align 8

; Function Attrs: alwaysinline nounwind uwtable
define hidden i32 @mpd_word_digits(i64 noundef %0) #1 {
  %2 = alloca i32, align 4
  %3 = alloca i64, align 8
  store i64 %0, ptr %3, align 8, !tbaa !3
  %4 = load i64, ptr %3, align 8, !tbaa !3
  %5 = load i64, ptr getelementptr ([0 x i64], ptr @mpd_pow10, i64 0, i64 9), align 8, !tbaa !3
  %6 = icmp ult i64 %4, %5
  br i1 %6, label %7, label %44

7:                                                ; preds = %1
  %8 = load i64, ptr %3, align 8, !tbaa !3
  %9 = load i64, ptr getelementptr ([0 x i64], ptr @mpd_pow10, i64 0, i64 4), align 8, !tbaa !3
  %10 = icmp ult i64 %8, %9
  br i1 %10, label %11, label %25

11:                                               ; preds = %7
  %12 = load i64, ptr %3, align 8, !tbaa !3
  %13 = load i64, ptr getelementptr ([0 x i64], ptr @mpd_pow10, i64 0, i64 2), align 8, !tbaa !3
  %14 = icmp ult i64 %12, %13
  br i1 %14, label %15, label %20

15:                                               ; preds = %11
  %16 = load i64, ptr %3, align 8, !tbaa !3
  %17 = load i64, ptr getelementptr ([0 x i64], ptr @mpd_pow10, i64 0, i64 1), align 8, !tbaa !3
  %18 = icmp ult i64 %16, %17
  %19 = select i1 %18, i32 1, i32 2
  store i32 %19, ptr %2, align 4
  br label %90

20:                                               ; preds = %11
  %21 = load i64, ptr %3, align 8, !tbaa !3
  %22 = load i64, ptr getelementptr ([0 x i64], ptr @mpd_pow10, i64 0, i64 3), align 8, !tbaa !3
  %23 = icmp ult i64 %21, %22
  %24 = select i1 %23, i32 3, i32 4
  store i32 %24, ptr %2, align 4
  br label %90

25:                                               ; preds = %7
  %26 = load i64, ptr %3, align 8, !tbaa !3
  %27 = load i64, ptr getelementptr ([0 x i64], ptr @mpd_pow10, i64 0, i64 6), align 8, !tbaa !3
  %28 = icmp ult i64 %26, %27
  br i1 %28, label %29, label %34

29:                                               ; preds = %25
  %30 = load i64, ptr %3, align 8, !tbaa !3
  %31 = load i64, ptr getelementptr ([0 x i64], ptr @mpd_pow10, i64 0, i64 5), align 8, !tbaa !3
  %32 = icmp ult i64 %30, %31
  %33 = select i1 %32, i32 5, i32 6
  store i32 %33, ptr %2, align 4
  br label %90

34:                                               ; preds = %25
  %35 = load i64, ptr %3, align 8, !tbaa !3
  %36 = load i64, ptr getelementptr ([0 x i64], ptr @mpd_pow10, i64 0, i64 8), align 8, !tbaa !3
  %37 = icmp ult i64 %35, %36
  br i1 %37, label %38, label %43

38:                                               ; preds = %34
  %39 = load i64, ptr %3, align 8, !tbaa !3
  %40 = load i64, ptr getelementptr ([0 x i64], ptr @mpd_pow10, i64 0, i64 7), align 8, !tbaa !3
  %41 = icmp ult i64 %39, %40
  %42 = select i1 %41, i32 7, i32 8
  store i32 %42, ptr %2, align 4
  br label %90

43:                                               ; preds = %34
  store i32 9, ptr %2, align 4
  br label %90

44:                                               ; preds = %1
  %45 = load i64, ptr %3, align 8, !tbaa !3
  %46 = load i64, ptr getelementptr ([0 x i64], ptr @mpd_pow10, i64 0, i64 14), align 8, !tbaa !3
  %47 = icmp ult i64 %45, %46
  br i1 %47, label %48, label %67

48:                                               ; preds = %44
  %49 = load i64, ptr %3, align 8, !tbaa !3
  %50 = load i64, ptr getelementptr ([0 x i64], ptr @mpd_pow10, i64 0, i64 11), align 8, !tbaa !3
  %51 = icmp ult i64 %49, %50
  br i1 %51, label %52, label %57

52:                                               ; preds = %48
  %53 = load i64, ptr %3, align 8, !tbaa !3
  %54 = load i64, ptr getelementptr ([0 x i64], ptr @mpd_pow10, i64 0, i64 10), align 8, !tbaa !3
  %55 = icmp ult i64 %53, %54
  %56 = select i1 %55, i32 10, i32 11
  store i32 %56, ptr %2, align 4
  br label %90

57:                                               ; preds = %48
  %58 = load i64, ptr %3, align 8, !tbaa !3
  %59 = load i64, ptr getelementptr ([0 x i64], ptr @mpd_pow10, i64 0, i64 13), align 8, !tbaa !3
  %60 = icmp ult i64 %58, %59
  br i1 %60, label %61, label %66

61:                                               ; preds = %57
  %62 = load i64, ptr %3, align 8, !tbaa !3
  %63 = load i64, ptr getelementptr ([0 x i64], ptr @mpd_pow10, i64 0, i64 12), align 8, !tbaa !3
  %64 = icmp ult i64 %62, %63
  %65 = select i1 %64, i32 12, i32 13
  store i32 %65, ptr %2, align 4
  br label %90

66:                                               ; preds = %57
  store i32 14, ptr %2, align 4
  br label %90

67:                                               ; preds = %44
  %68 = load i64, ptr %3, align 8, !tbaa !3
  %69 = load i64, ptr getelementptr ([0 x i64], ptr @mpd_pow10, i64 0, i64 18), align 8, !tbaa !3
  %70 = icmp ult i64 %68, %69
  br i1 %70, label %71, label %85

71:                                               ; preds = %67
  %72 = load i64, ptr %3, align 8, !tbaa !3
  %73 = load i64, ptr getelementptr ([0 x i64], ptr @mpd_pow10, i64 0, i64 16), align 8, !tbaa !3
  %74 = icmp ult i64 %72, %73
  br i1 %74, label %75, label %80

75:                                               ; preds = %71
  %76 = load i64, ptr %3, align 8, !tbaa !3
  %77 = load i64, ptr getelementptr ([0 x i64], ptr @mpd_pow10, i64 0, i64 15), align 8, !tbaa !3
  %78 = icmp ult i64 %76, %77
  %79 = select i1 %78, i32 15, i32 16
  store i32 %79, ptr %2, align 4
  br label %90

80:                                               ; preds = %71
  %81 = load i64, ptr %3, align 8, !tbaa !3
  %82 = load i64, ptr getelementptr ([0 x i64], ptr @mpd_pow10, i64 0, i64 17), align 8, !tbaa !3
  %83 = icmp ult i64 %81, %82
  %84 = select i1 %83, i32 17, i32 18
  store i32 %84, ptr %2, align 4
  br label %90

85:                                               ; preds = %67
  %86 = load i64, ptr %3, align 8, !tbaa !3
  %87 = load i64, ptr getelementptr ([0 x i64], ptr @mpd_pow10, i64 0, i64 19), align 8, !tbaa !3
  %88 = icmp ult i64 %86, %87
  %89 = select i1 %88, i32 19, i32 20
  store i32 %89, ptr %2, align 4
  br label %90

90:                                               ; preds = %85, %80, %75, %66, %61, %52, %43, %38, %29, %20, %15
  %91 = load i32, ptr %2, align 4
  ret i32 %91
}

; Function Attrs: alwaysinline nounwind uwtable
define hidden i64 @mpd_msword(ptr noundef %0) #1 {
  %2 = alloca ptr, align 8
  store ptr %0, ptr %2, align 8, !tbaa !7
  %3 = load ptr, ptr %2, align 8, !tbaa !7
  %4 = getelementptr inbounds nuw %struct.mpd_t, ptr %3, i32 0, i32 5
  %5 = load ptr, ptr %4, align 8, !tbaa !21
  %6 = load ptr, ptr %2, align 8, !tbaa !7
  %7 = getelementptr inbounds nuw %struct.mpd_t, ptr %6, i32 0, i32 3
  %8 = load i64, ptr %7, align 8, !tbaa !22
  %9 = sub i64 %8, 1
  %10 = getelementptr i64, ptr %5, i64 %9
  %11 = load i64, ptr %10, align 8, !tbaa !3
  ret i64 %11
}

; Function Attrs: inlinehint nounwind uwtable
define hidden void @mpd_setdigits(ptr noundef %0) #2 {
  %2 = alloca ptr, align 8
  %3 = alloca i64, align 8
  store ptr %0, ptr %2, align 8, !tbaa !7
  call void @llvm.lifetime.start.p0(i64 8, ptr %3) #10
  %4 = load ptr, ptr %2, align 8, !tbaa !7
  %5 = call i64 @mpd_msword(ptr noundef %4)
  %6 = call i32 @mpd_word_digits(i64 noundef %5)
  %7 = sext i32 %6 to i64
  store i64 %7, ptr %3, align 8, !tbaa !3
  %8 = load i64, ptr %3, align 8, !tbaa !3
  %9 = load ptr, ptr %2, align 8, !tbaa !7
  %10 = getelementptr inbounds nuw %struct.mpd_t, ptr %9, i32 0, i32 3
  %11 = load i64, ptr %10, align 8, !tbaa !22
  %12 = sub i64 %11, 1
  %13 = mul i64 %12, 19
  %14 = add i64 %8, %13
  %15 = load ptr, ptr %2, align 8, !tbaa !7
  %16 = getelementptr inbounds nuw %struct.mpd_t, ptr %15, i32 0, i32 2
  store i64 %14, ptr %16, align 8, !tbaa !13
  call void @llvm.lifetime.end.p0(i64 8, ptr %3) #10
  ret void
}