; Function Attrs: inlinehint mustprogress nofree norecurse nosync nounwind willreturn memory(read, argmem: readwrite, inaccessiblemem: none) uwtable
define hidden void @mpd_setdigits(ptr noundef captures(none) initializes((16, 24)) %0) local_unnamed_addr #11 {
  %2 = getelementptr inbounds nuw i8, ptr %0, i64 40
  %3 = load ptr, ptr %2, align 8, !tbaa !17
  %4 = getelementptr inbounds nuw i8, ptr %0, i64 24
  %5 = load i64, ptr %4, align 8, !tbaa !18
  %6 = getelementptr i64, ptr %3, i64 %5
  %7 = getelementptr i8, ptr %6, i64 -8
  %8 = load i64, ptr %7, align 8, !tbaa !3
  %9 = load i64, ptr getelementptr (i8, ptr @mpd_pow10, i64 72), align 8, !tbaa !3
  %10 = icmp ult i64 %8, %9
  br i1 %10, label %11, label %39

11:                                               ; preds = %1
  %12 = load i64, ptr getelementptr (i8, ptr @mpd_pow10, i64 32), align 8, !tbaa !3
  %13 = icmp ult i64 %8, %12
  br i1 %13, label %14, label %25

14:                                               ; preds = %11
  %15 = load i64, ptr getelementptr (i8, ptr @mpd_pow10, i64 16), align 8, !tbaa !3
  %16 = icmp ult i64 %8, %15
  br i1 %16, label %17, label %21

17:                                               ; preds = %14
  %18 = load i64, ptr getelementptr (i8, ptr @mpd_pow10, i64 8), align 8, !tbaa !3
  %19 = icmp ult i64 %8, %18
  %20 = select i1 %19, i64 1, i64 2
  br label %mpd_word_digits.exit

21:                                               ; preds = %14
  %22 = load i64, ptr getelementptr (i8, ptr @mpd_pow10, i64 24), align 8, !tbaa !3
  %23 = icmp ult i64 %8, %22
  %24 = select i1 %23, i64 3, i64 4
  br label %mpd_word_digits.exit

25:                                               ; preds = %11
  %26 = load i64, ptr getelementptr (i8, ptr @mpd_pow10, i64 48), align 8, !tbaa !3
  %27 = icmp ult i64 %8, %26
  br i1 %27, label %28, label %32

28:                                               ; preds = %25
  %29 = load i64, ptr getelementptr (i8, ptr @mpd_pow10, i64 40), align 8, !tbaa !3
  %30 = icmp ult i64 %8, %29
  %31 = select i1 %30, i64 5, i64 6
  br label %mpd_word_digits.exit

32:                                               ; preds = %25
  %33 = load i64, ptr getelementptr (i8, ptr @mpd_pow10, i64 64), align 8, !tbaa !3
  %34 = icmp ult i64 %8, %33
  br i1 %34, label %35, label %mpd_word_digits.exit

35:                                               ; preds = %32
  %36 = load i64, ptr getelementptr (i8, ptr @mpd_pow10, i64 56), align 8, !tbaa !3
  %37 = icmp ult i64 %8, %36
  %38 = select i1 %37, i64 7, i64 8
  br label %mpd_word_digits.exit

39:                                               ; preds = %1
  %40 = load i64, ptr getelementptr (i8, ptr @mpd_pow10, i64 112), align 8, !tbaa !3
  %41 = icmp ult i64 %8, %40
  br i1 %41, label %42, label %56

42:                                               ; preds = %39
  %43 = load i64, ptr getelementptr (i8, ptr @mpd_pow10, i64 88), align 8, !tbaa !3
  %44 = icmp ult i64 %8, %43
  br i1 %44, label %45, label %49

45:                                               ; preds = %42
  %46 = load i64, ptr getelementptr (i8, ptr @mpd_pow10, i64 80), align 8, !tbaa !3
  %47 = icmp ult i64 %8, %46
  %48 = select i1 %47, i64 10, i64 11
  br label %mpd_word_digits.exit

49:                                               ; preds = %42
  %50 = load i64, ptr getelementptr (i8, ptr @mpd_pow10, i64 104), align 8, !tbaa !3
  %51 = icmp ult i64 %8, %50
  br i1 %51, label %52, label %mpd_word_digits.exit

52:                                               ; preds = %49
  %53 = load i64, ptr getelementptr (i8, ptr @mpd_pow10, i64 96), align 8, !tbaa !3
  %54 = icmp ult i64 %8, %53
  %55 = select i1 %54, i64 12, i64 13
  br label %mpd_word_digits.exit

56:                                               ; preds = %39
  %57 = load i64, ptr getelementptr (i8, ptr @mpd_pow10, i64 144), align 8, !tbaa !3
  %58 = icmp ult i64 %8, %57
  br i1 %58, label %59, label %70

59:                                               ; preds = %56
  %60 = load i64, ptr getelementptr (i8, ptr @mpd_pow10, i64 128), align 8, !tbaa !3
  %61 = icmp ult i64 %8, %60
  br i1 %61, label %62, label %66

62:                                               ; preds = %59
  %63 = load i64, ptr getelementptr (i8, ptr @mpd_pow10, i64 120), align 8, !tbaa !3
  %64 = icmp ult i64 %8, %63
  %65 = select i1 %64, i64 15, i64 16
  br label %mpd_word_digits.exit

66:                                               ; preds = %59
  %67 = load i64, ptr getelementptr (i8, ptr @mpd_pow10, i64 136), align 8, !tbaa !3
  %68 = icmp ult i64 %8, %67
  %69 = select i1 %68, i64 17, i64 18
  br label %mpd_word_digits.exit

70:                                               ; preds = %56
  %71 = load i64, ptr getelementptr (i8, ptr @mpd_pow10, i64 152), align 8, !tbaa !3
  %72 = icmp ult i64 %8, %71
  %73 = select i1 %72, i64 19, i64 20
  br label %mpd_word_digits.exit

mpd_word_digits.exit:                             ; preds = %17, %21, %28, %32, %35, %45, %49, %52, %62, %66, %70
  %.0.i = phi i64 [ %20, %17 ], [ %24, %21 ], [ %31, %28 ], [ %38, %35 ], [ %48, %45 ], [ %55, %52 ], [ %65, %62 ], [ %69, %66 ], [ %73, %70 ], [ 9, %32 ], [ 14, %49 ]
  %74 = mul i64 %5, 19
  %75 = add i64 %74, -19
  %76 = add i64 %75, %.0.i
  %77 = getelementptr inbounds nuw i8, ptr %0, i64 16
  store i64 %76, ptr %77, align 8, !tbaa !11
  ret void
}